; Function Attrs: nofree norecurse nosync nounwind memory(readwrite, inaccessiblemem: none) uwtable
define void @Saig_StrSimSetInitMatching(ptr noundef readonly captures(none) %0, ptr noundef readonly captures(none) %1) local_unnamed_addr #6 {
  %3 = getelementptr i8, ptr %0, i64 48
  %.val30 = load ptr, ptr %3, align 8, !tbaa !66
  %4 = getelementptr i8, ptr %1, i64 48
  %.val29 = load ptr, ptr %4, align 8, !tbaa !66
  %5 = getelementptr i8, ptr %0, i64 256
  %.val27 = load ptr, ptr %5, align 8, !tbaa !36
  %6 = getelementptr i8, ptr %.val30, i64 36
  %.val28 = load i32, ptr %6, align 4, !tbaa !37
  %7 = sext i32 %.val28 to i64
  %8 = getelementptr inbounds ptr, ptr %.val27, i64 %7
  store ptr %.val29, ptr %8, align 8, !tbaa !38
  %9 = getelementptr i8, ptr %1, i64 256
  %.val25 = load ptr, ptr %9, align 8, !tbaa !36
  %10 = getelementptr i8, ptr %.val29, i64 36
  %.val26 = load i32, ptr %10, align 4, !tbaa !37
  %11 = sext i32 %.val26 to i64
  %12 = getelementptr inbounds ptr, ptr %.val25, i64 %11
  store ptr %.val30, ptr %12, align 8, !tbaa !38
  %13 = getelementptr i8, ptr %0, i64 108
  %.val20 = load i32, ptr %13, align 4, !tbaa !46
  %14 = icmp sgt i32 %.val20, 0
  br i1 %14, label %.lr.ph, label %.critedge

.lr.ph:                                           ; preds = %2
  %15 = getelementptr inbounds nuw i8, ptr %0, i64 16
  %16 = load ptr, ptr %15, align 8, !tbaa !45
  %17 = getelementptr i8, ptr %16, i64 8
  %.val = load ptr, ptr %17, align 8, !tbaa !34
  %18 = getelementptr i8, ptr %1, i64 16
  %.val31 = load ptr, ptr %18, align 8, !tbaa !45
  %19 = getelementptr i8, ptr %.val31, i64 8
  %.val31.val = load ptr, ptr %19, align 8, !tbaa !34
  %wide.trip.count = zext nneg i32 %.val20 to i64
  br label %20

20:                                               ; preds = %.lr.ph, %20
  %indvars.iv = phi i64 [ 0, %.lr.ph ], [ %indvars.iv.next, %20 ]
  %21 = getelementptr inbounds nuw ptr, ptr %.val, i64 %indvars.iv
  %22 = load ptr, ptr %21, align 8, !tbaa !35
  %23 = getelementptr inbounds nuw ptr, ptr %.val31.val, i64 %indvars.iv
  %24 = load ptr, ptr %23, align 8, !tbaa !35
  %25 = getelementptr i8, ptr %22, i64 36
  %.val24 = load i32, ptr %25, align 4, !tbaa !37
  %26 = sext i32 %.val24 to i64
  %27 = getelementptr inbounds ptr, ptr %.val27, i64 %26
  store ptr %24, ptr %27, align 8, !tbaa !38
  %28 = getelementptr i8, ptr %24, i64 36
  %.val22 = load i32, ptr %28, align 4, !tbaa !37
  %29 = sext i32 %.val22 to i64
  %30 = getelementptr inbounds ptr, ptr %.val25, i64 %29
  store ptr %22, ptr %30, align 8, !tbaa !38
  %indvars.iv.next = add nuw nsw i64 %indvars.iv, 1
  %exitcond.not = icmp eq i64 %indvars.iv.next, %wide.trip.count
  br i1 %exitcond.not, label %.critedge, label %20, !llvm.loop !68

.critedge:                                        ; preds = %20, %2
  ret void
}